target datalayout = "e-m:e-p270:32:32-p271:32:32-p272:64:64-i64:64-i128:128-f80:128-n8:16:32:64-S128"
target triple = "x86_64-pc-linux-gnu"

%class.RAROptions = type { i32, i32, i8, i8, i8, i64, [2048 x i32], [2048 x i32], i32, i8, [2048 x i32], [2048 x i32], i32, i32, i32, i32, [2048 x i32], [2048 x i32], i8, i8, i8, [2048 x i32], i32, i32, i32, i32, i32, i32, i32, i32, i8, i8, i8, i8, i8, i32, i32, i8, i8, i8, i8, i8, i32, i32, i64, i32, i8, i8, i8, i32, i32, i8, i8, i8, i8, i32, i32, i8, i8, i8, i8, [128 x i32], [128 x i32], i8, i8, i8, i8, i8, %class.RarTime, %class.RarTime, %class.RarTime, i8, i8, i8, %class.RarTime, %class.RarTime, %class.RarTime, i8, i8, i8, i64, i64, i8, i8, i8, [16 x %struct.FilterMode], [2048 x i32], i32, i32, i32, i32, i32, i32, i8, [2048 x i32], i32, [2048 x i32], i32, i32, i64, ptr, ptr, ptr }
%class.RarTime = type { i64 }
%struct.FilterMode = type { i32, i32, i32 }

@.str.1 = private unnamed_addr constant [9 x i32] [i32 77, i32 67, i32 65, i32 79, i32 109, i32 99, i32 97, i32 111, i32 0], align 4
@.str.2 = private unnamed_addr constant [2 x i32] [i32 109, i32 0], align 4

; Function Attrs: mustprogress uwtable
define void @_ZN11CommandData14SetTimeFiltersEPKwbb(ptr noundef nonnull align 8 dereferenceable(100904) %0, ptr noundef %1, i1 noundef zeroext %2, i1 noundef zeroext %3) #0 align 2 {
  %5 = alloca ptr, align 8
  %6 = alloca ptr, align 8
  %7 = alloca i8, align 1
  %8 = alloca i8, align 1
  %9 = alloca i8, align 1
  %10 = alloca i8, align 1
  %11 = alloca ptr, align 8
  store ptr %0, ptr %5, align 8
  store ptr %1, ptr %6, align 8
  %12 = zext i1 %2 to i8
  store i8 %12, ptr %7, align 1
  %13 = zext i1 %3 to i8
  store i8 %13, ptr %8, align 1
  %14 = load ptr, ptr %5, align 8
  store i8 0, ptr %9, align 1
  store i8 0, ptr %10, align 1
  %15 = load ptr, ptr %6, align 8
  store ptr %15, ptr %11, align 8
  br label %16

16:                                               ; preds = %38, %4
  %17 = load ptr, ptr %11, align 8
  %18 = load i32, ptr %17, align 4
  %19 = icmp ne i32 %18, 0
  br i1 %19, label %20, label %25

20:                                               ; preds = %16
  %21 = load ptr, ptr %11, align 8
  %22 = load i32, ptr %21, align 4
  %23 = call ptr @wcschr(ptr noundef @.str.1, i32 noundef signext %22) #10
  %24 = icmp ne ptr %23, null
  br label %25

25:                                               ; preds = %20, %16
  %26 = phi i1 [ false, %16 ], [ %24, %20 ]
  br i1 %26, label %27, label %41

27:                                               ; preds = %25
  %28 = load ptr, ptr %11, align 8
  %29 = load i32, ptr %28, align 4
  %30 = icmp eq i32 %29, 111
  br i1 %30, label %35, label %31

31:                                               ; preds = %27
  %32 = load ptr, ptr %11, align 8
  %33 = load i32, ptr %32, align 4
  %34 = icmp eq i32 %33, 79
  br i1 %34, label %35, label %36

35:                                               ; preds = %31, %27
  store i8 1, ptr %9, align 1
  br label %37

36:                                               ; preds = %31
  store i8 1, ptr %10, align 1
  br label %37

37:                                               ; preds = %36, %35
  br label %38

38:                                               ; preds = %37
  %39 = load ptr, ptr %11, align 8
  %40 = getelementptr inbounds i32, ptr %39, i32 1
  store ptr %40, ptr %11, align 8
  br label %16, !llvm.loop !6

41:                                               ; preds = %25
  %42 = load i8, ptr %10, align 1
  %43 = trunc i8 %42 to i1
  br i1 %43, label %45, label %44

44:                                               ; preds = %41
  store ptr @.str.2, ptr %6, align 8
  br label %45

45:                                               ; preds = %44, %41
  br label %46

46:                                               ; preds = %158, %45
  %47 = load ptr, ptr %6, align 8
  %48 = load i32, ptr %47, align 4
  %49 = icmp ne i32 %48, 0
  br i1 %49, label %50, label %55

50:                                               ; preds = %46
  %51 = load ptr, ptr %6, align 8
  %52 = load i32, ptr %51, align 4
  %53 = call ptr @wcschr(ptr noundef @.str.1, i32 noundef signext %52) #10
  %54 = icmp ne ptr %53, null
  br label %55

55:                                               ; preds = %50, %46
  %56 = phi i1 [ false, %46 ], [ %54, %50 ]
  br i1 %56, label %57, label %161

57:                                               ; preds = %55
  %58 = load ptr, ptr %6, align 8
  %59 = load i32, ptr %58, align 4
  %60 = call noundef i32 @_Z8toupperwi(i32 noundef %59)
  switch i32 %60, label %157 [
    i32 77, label %61
    i32 67, label %93
    i32 65, label %125
  ]

61:                                               ; preds = %57
  %62 = load i8, ptr %7, align 1
  %63 = trunc i8 %62 to i1
  br i1 %63, label %64, label %78

64:                                               ; preds = %61
  %65 = load i8, ptr %8, align 1
  %66 = trunc i8 %65 to i1
  br i1 %66, label %67, label %70

67:                                               ; preds = %64
  %68 = getelementptr inbounds %class.RAROptions, ptr %14, i32 0, i32 68
  %69 = load ptr, ptr %11, align 8
  call void @_ZN7RarTime10SetAgeTextEPKw(ptr noundef nonnull align 8 dereferenceable(8) %68, ptr noundef %69)
  br label %73

70:                                               ; preds = %64
  %71 = getelementptr inbounds %class.RAROptions, ptr %14, i32 0, i32 68
  %72 = load ptr, ptr %11, align 8
  call void @_ZN7RarTime10SetIsoTextEPKw(ptr noundef nonnull align 8 dereferenceable(8) %71, ptr noundef %72)
  br label %73

73:                                               ; preds = %70, %67
  %74 = load i8, ptr %9, align 1
  %75 = trunc i8 %74 to i1
  %76 = getelementptr inbounds %class.RAROptions, ptr %14, i32 0, i32 71
  %77 = zext i1 %75 to i8
  store i8 %77, ptr %76, align 8
  br label %92

78:                                               ; preds = %61
  %79 = load i8, ptr %8, align 1
  %80 = trunc i8 %79 to i1
  br i1 %80, label %81, label %84

81:                                               ; preds = %78
  %82 = getelementptr inbounds %class.RAROptions, ptr %14, i32 0, i32 74
  %83 = load ptr, ptr %11, align 8
  call void @_ZN7RarTime10SetAgeTextEPKw(ptr noundef nonnull align 8 dereferenceable(8) %82, ptr noundef %83)
  br label %87

84:                                               ; preds = %78
  %85 = getelementptr inbounds %class.RAROptions, ptr %14, i32 0, i32 74
  %86 = load ptr, ptr %11, align 8
  call void @_ZN7RarTime10SetIsoTextEPKw(ptr noundef nonnull align 8 dereferenceable(8) %85, ptr noundef %86)
  br label %87

87:                                               ; preds = %84, %81
  %88 = load i8, ptr %9, align 1
  %89 = trunc i8 %88 to i1
  %90 = getelementptr inbounds %class.RAROptions, ptr %14, i32 0, i32 77
  %91 = zext i1 %89 to i8
  store i8 %91, ptr %90, align 8
  br label %92

92:                                               ; preds = %87, %73
  br label %157

93:                                               ; preds = %57
  %94 = load i8, ptr %7, align 1
  %95 = trunc i8 %94 to i1
  br i1 %95, label %96, label %110

96:                                               ; preds = %93
  %97 = load i8, ptr %8, align 1
  %98 = trunc i8 %97 to i1
  br i1 %98, label %99, label %102

99:                                               ; preds = %96
  %100 = getelementptr inbounds %class.RAROptions, ptr %14, i32 0, i32 69
  %101 = load ptr, ptr %11, align 8
  call void @_ZN7RarTime10SetAgeTextEPKw(ptr noundef nonnull align 8 dereferenceable(8) %100, ptr noundef %101)
  br label %105

102:                                              ; preds = %96
  %103 = getelementptr inbounds %class.RAROptions, ptr %14, i32 0, i32 69
  %104 = load ptr, ptr %11, align 8
  call void @_ZN7RarTime10SetIsoTextEPKw(ptr noundef nonnull align 8 dereferenceable(8) %103, ptr noundef %104)
  br label %105

105:                                              ; preds = %102, %99
  %106 = load i8, ptr %9, align 1
  %107 = trunc i8 %106 to i1
  %108 = getelementptr inbounds %class.RAROptions, ptr %14, i32 0, i32 72
  %109 = zext i1 %107 to i8
  store i8 %109, ptr %108, align 1
  br label %124

110:                                              ; preds = %93
  %111 = load i8, ptr %8, align 1
  %112 = trunc i8 %111 to i1
  br i1 %112, label %113, label %116

113:                                              ; preds = %110
  %114 = getelementptr inbounds %class.RAROptions, ptr %14, i32 0, i32 75
  %115 = load ptr, ptr %11, align 8
  call void @_ZN7RarTime10SetAgeTextEPKw(ptr noundef nonnull align 8 dereferenceable(8) %114, ptr noundef %115)
  br label %119

116:                                              ; preds = %110
  %117 = getelementptr inbounds %class.RAROptions, ptr %14, i32 0, i32 75
  %118 = load ptr, ptr %11, align 8
  call void @_ZN7RarTime10SetIsoTextEPKw(ptr noundef nonnull align 8 dereferenceable(8) %117, ptr noundef %118)
  br label %119

119:                                              ; preds = %116, %113
  %120 = load i8, ptr %9, align 1
  %121 = trunc i8 %120 to i1
  %122 = getelementptr inbounds %class.RAROptions, ptr %14, i32 0, i32 78
  %123 = zext i1 %121 to i8
  store i8 %123, ptr %122, align 1
  br label %124

124:                                              ; preds = %119, %105
  br label %157

125:                                              ; preds = %57
  %126 = load i8, ptr %7, align 1
  %127 = trunc i8 %126 to i1
  br i1 %127, label %128, label %142

128:                                              ; preds = %125
  %129 = load i8, ptr %8, align 1
  %130 = trunc i8 %129 to i1
  br i1 %130, label %131, label %134

131:                                              ; preds = %128
  %132 = getelementptr inbounds %class.RAROptions, ptr %14, i32 0, i32 70
  %133 = load ptr, ptr %11, align 8
  call void @_ZN7RarTime10SetAgeTextEPKw(ptr noundef nonnull align 8 dereferenceable(8) %132, ptr noundef %133)
  br label %137

134:                                              ; preds = %128
  %135 = getelementptr inbounds %class.RAROptions, ptr %14, i32 0, i32 70
  %136 = load ptr, ptr %11, align 8
  call void @_ZN7RarTime10SetIsoTextEPKw(ptr noundef nonnull align 8 dereferenceable(8) %135, ptr noundef %136)
  br label %137

137:                                              ; preds = %134, %131
  %138 = load i8, ptr %9, align 1
  %139 = trunc i8 %138 to i1
  %140 = getelementptr inbounds %class.RAROptions, ptr %14, i32 0, i32 73
  %141 = zext i1 %139 to i8
  store i8 %141, ptr %140, align 2
  br label %156

142:                                              ; preds = %125
  %143 = load i8, ptr %8, align 1
  %144 = trunc i8 %143 to i1
  br i1 %144, label %145, label %148

145:                                              ; preds = %142
  %146 = getelementptr inbounds %class.RAROptions, ptr %14, i32 0, i32 76
  %147 = load ptr, ptr %11, align 8
  call void @_ZN7RarTime10SetAgeTextEPKw(ptr noundef nonnull align 8 dereferenceable(8) %146, ptr noundef %147)
  br label %151

148:                                              ; preds = %142
  %149 = getelementptr inbounds %class.RAROptions, ptr %14, i32 0, i32 76
  %150 = load ptr, ptr %11, align 8
  call void @_ZN7RarTime10SetIsoTextEPKw(ptr noundef nonnull align 8 dereferenceable(8) %149, ptr noundef %150)
  br label %151

151:                                              ; preds = %148, %145
  %152 = load i8, ptr %9, align 1
  %153 = trunc i8 %152 to i1
  %154 = getelementptr inbounds %class.RAROptions, ptr %14, i32 0, i32 79
  %155 = zext i1 %153 to i8
  store i8 %155, ptr %154, align 2
  br label %156

156:                                              ; preds = %151, %137
  br label %157

157:                                              ; preds = %156, %124, %92, %57
  br label %158

158:                                              ; preds = %157
  %159 = load ptr, ptr %6, align 8
  %160 = getelementptr inbounds i32, ptr %159, i32 1
  store ptr %160, ptr %6, align 8
  br label %46, !llvm.loop !7

161:                                              ; preds = %55
  ret void
}