; Function Attrs: mustprogress uwtable
define void @_ZN11CommandData14SetTimeFiltersEPKwbb(ptr noundef nonnull align 8 dereferenceable(100904) %0, ptr noundef %1, i1 noundef zeroext %2, i1 noundef zeroext %3) local_unnamed_addr #0 align 2 {
  %5 = load i32, ptr %1, align 4
  %.not50 = icmp eq i32 %5, 0
  br i1 %.not50, label %.critedge, label %.lr.ph

.lr.ph:                                           ; preds = %4, %10
  %6 = phi i32 [ %12, %10 ], [ %5, %4 ]
  %.053 = phi ptr [ %11, %10 ], [ %1, %4 ]
  %.04052 = phi i1 [ %.1, %10 ], [ false, %4 ]
  %.04151 = phi i8 [ %.142, %10 ], [ 0, %4 ]
  %7 = tail call ptr @wcschr(ptr noundef nonnull @.str.1, i32 noundef signext %6) #16
  %.not47 = icmp eq ptr %7, null
  br i1 %.not47, label %.critedge.loopexit, label %8

8:                                                ; preds = %.lr.ph
  switch i32 %6, label %9 [
    i32 111, label %10
    i32 79, label %10
  ]

9:                                                ; preds = %8
  br label %10

10:                                               ; preds = %8, %8, %9
  %.142 = phi i8 [ %.04151, %9 ], [ 1, %8 ], [ 1, %8 ]
  %.1 = phi i1 [ true, %9 ], [ %.04052, %8 ], [ %.04052, %8 ]
  %11 = getelementptr inbounds nuw i8, ptr %.053, i64 4
  %12 = load i32, ptr %11, align 4
  %.not = icmp eq i32 %12, 0
  br i1 %.not, label %.critedge.loopexit, label %.lr.ph, !llvm.loop !6

.critedge.loopexit:                               ; preds = %10, %.lr.ph
  %.041.lcssa.ph = phi i8 [ %.04151, %.lr.ph ], [ %.142, %10 ]
  %.040.lcssa.ph = phi i1 [ %.04052, %.lr.ph ], [ %.1, %10 ]
  %.0.lcssa.ph = phi ptr [ %.053, %.lr.ph ], [ %11, %10 ]
  %13 = select i1 %.040.lcssa.ph, ptr %1, ptr @.str.2
  br label %.critedge

.critedge:                                        ; preds = %.critedge.loopexit, %4
  %.041.lcssa = phi i8 [ 0, %4 ], [ %.041.lcssa.ph, %.critedge.loopexit ]
  %.040.lcssa = phi ptr [ @.str.2, %4 ], [ %13, %.critedge.loopexit ]
  %.0.lcssa = phi ptr [ %1, %4 ], [ %.0.lcssa.ph, %.critedge.loopexit ]
  %14 = load i32, ptr %.040.lcssa, align 4
  %.not4860 = icmp eq i32 %14, 0
  br i1 %.not4860, label %.critedge2, label %.lr.ph62

.lr.ph62:                                         ; preds = %.critedge
  %15 = getelementptr inbounds nuw i8, ptr %0, i64 58584
  %16 = getelementptr inbounds nuw i8, ptr %0, i64 58594
  %17 = getelementptr inbounds nuw i8, ptr %0, i64 58552
  %18 = getelementptr inbounds nuw i8, ptr %0, i64 58562
  %19 = getelementptr inbounds nuw i8, ptr %0, i64 58576
  %20 = getelementptr inbounds nuw i8, ptr %0, i64 58593
  %21 = getelementptr inbounds nuw i8, ptr %0, i64 58544
  %22 = getelementptr inbounds nuw i8, ptr %0, i64 58561
  %23 = getelementptr inbounds nuw i8, ptr %0, i64 58568
  %24 = getelementptr inbounds nuw i8, ptr %0, i64 58592
  %25 = getelementptr inbounds nuw i8, ptr %0, i64 58536
  %26 = getelementptr inbounds nuw i8, ptr %0, i64 58560
  br label %27

27:                                               ; preds = %.lr.ph62, %59
  %28 = phi i32 [ %14, %.lr.ph62 ], [ %61, %59 ]
  %.14461 = phi ptr [ %.040.lcssa, %.lr.ph62 ], [ %60, %59 ]
  %29 = tail call ptr @wcschr(ptr noundef nonnull @.str.1, i32 noundef signext %28) #16
  %.not49 = icmp eq ptr %29, null
  br i1 %.not49, label %.critedge2, label %30

30:                                               ; preds = %27
  %31 = tail call noundef i32 @_Z8toupperwi(i32 noundef %28)
  switch i32 %31, label %59 [
    i32 77, label %32
    i32 67, label %41
    i32 65, label %50
  ]

32:                                               ; preds = %30
  br i1 %2, label %33, label %37

33:                                               ; preds = %32
  br i1 %3, label %34, label %35

34:                                               ; preds = %33
  tail call void @_ZN7RarTime10SetAgeTextEPKw(ptr noundef nonnull align 8 dereferenceable(8) %25, ptr noundef nonnull %.0.lcssa)
  br label %36

35:                                               ; preds = %33
  tail call void @_ZN7RarTime10SetIsoTextEPKw(ptr noundef nonnull align 8 dereferenceable(8) %25, ptr noundef nonnull %.0.lcssa)
  br label %36

36:                                               ; preds = %35, %34
  store i8 %.041.lcssa, ptr %26, align 8
  br label %59

37:                                               ; preds = %32
  br i1 %3, label %38, label %39

38:                                               ; preds = %37
  tail call void @_ZN7RarTime10SetAgeTextEPKw(ptr noundef nonnull align 8 dereferenceable(8) %23, ptr noundef nonnull %.0.lcssa)
  br label %40

39:                                               ; preds = %37
  tail call void @_ZN7RarTime10SetIsoTextEPKw(ptr noundef nonnull align 8 dereferenceable(8) %23, ptr noundef nonnull %.0.lcssa)
  br label %40

40:                                               ; preds = %39, %38
  store i8 %.041.lcssa, ptr %24, align 8
  br label %59

41:                                               ; preds = %30
  br i1 %2, label %42, label %46

42:                                               ; preds = %41
  br i1 %3, label %43, label %44

43:                                               ; preds = %42
  tail call void @_ZN7RarTime10SetAgeTextEPKw(ptr noundef nonnull align 8 dereferenceable(8) %21, ptr noundef nonnull %.0.lcssa)
  br label %45

44:                                               ; preds = %42
  tail call void @_ZN7RarTime10SetIsoTextEPKw(ptr noundef nonnull align 8 dereferenceable(8) %21, ptr noundef nonnull %.0.lcssa)
  br label %45

45:                                               ; preds = %44, %43
  store i8 %.041.lcssa, ptr %22, align 1
  br label %59

46:                                               ; preds = %41
  br i1 %3, label %47, label %48

47:                                               ; preds = %46
  tail call void @_ZN7RarTime10SetAgeTextEPKw(ptr noundef nonnull align 8 dereferenceable(8) %19, ptr noundef nonnull %.0.lcssa)
  br label %49

48:                                               ; preds = %46
  tail call void @_ZN7RarTime10SetIsoTextEPKw(ptr noundef nonnull align 8 dereferenceable(8) %19, ptr noundef nonnull %.0.lcssa)
  br label %49

49:                                               ; preds = %48, %47
  store i8 %.041.lcssa, ptr %20, align 1
  br label %59

50:                                               ; preds = %30
  br i1 %2, label %51, label %55

51:                                               ; preds = %50
  br i1 %3, label %52, label %53

52:                                               ; preds = %51
  tail call void @_ZN7RarTime10SetAgeTextEPKw(ptr noundef nonnull align 8 dereferenceable(8) %17, ptr noundef nonnull %.0.lcssa)
  br label %54

53:                                               ; preds = %51
  tail call void @_ZN7RarTime10SetIsoTextEPKw(ptr noundef nonnull align 8 dereferenceable(8) %17, ptr noundef nonnull %.0.lcssa)
  br label %54

54:                                               ; preds = %53, %52
  store i8 %.041.lcssa, ptr %18, align 2
  br label %59

55:                                               ; preds = %50
  br i1 %3, label %56, label %57

56:                                               ; preds = %55
  tail call void @_ZN7RarTime10SetAgeTextEPKw(ptr noundef nonnull align 8 dereferenceable(8) %15, ptr noundef nonnull %.0.lcssa)
  br label %58

57:                                               ; preds = %55
  tail call void @_ZN7RarTime10SetIsoTextEPKw(ptr noundef nonnull align 8 dereferenceable(8) %15, ptr noundef nonnull %.0.lcssa)
  br label %58

58:                                               ; preds = %57, %56
  store i8 %.041.lcssa, ptr %16, align 2
  br label %59

59:                                               ; preds = %30, %40, %36, %49, %45, %58, %54
  %60 = getelementptr inbounds nuw i8, ptr %.14461, i64 4
  %61 = load i32, ptr %60, align 4
  %.not48 = icmp eq i32 %61, 0
  br i1 %.not48, label %.critedge2, label %27, !llvm.loop !7

.critedge2:                                       ; preds = %27, %59, %.critedge
  ret void
}